; Function Attrs: mustprogress uwtable
define dso_local void @_ZN2cm6String9stabilizeEv(ptr noundef nonnull align 8 captures(none) dereferenceable(32) %0) local_unnamed_addr #2 align 2 {
  %2 = getelementptr inbounds nuw i8, ptr %0, i64 24
  %3 = load ptr, ptr %2, align 8, !tbaa !4
  %.not.i.i = icmp eq ptr %3, null
  br i1 %.not.i.i, label %_ZNK2cm6String9is_stableEv.exit.thread2, label %4

4:                                                ; preds = %1
  %5 = load ptr, ptr %0, align 8, !tbaa !12
  %.not2.i.i = icmp eq ptr %5, null
  br i1 %.not2.i.i, label %_ZNK2cm6String9is_stableEv.exit.thread, label %6

6:                                                ; preds = %4
  %7 = load ptr, ptr %5, align 8, !tbaa !33
  %8 = icmp eq ptr %3, %7
  br i1 %8, label %_ZNK2cm6String9is_stableEv.exit, label %_ZNK2cm6String9is_stableEv.exit.thread

_ZNK2cm6String9is_stableEv.exit:                  ; preds = %6
  %9 = getelementptr inbounds nuw i8, ptr %0, i64 16
  %10 = load i64, ptr %9, align 8, !tbaa !11
  %11 = getelementptr inbounds nuw i8, ptr %5, i64 8
  %12 = load i64, ptr %11, align 8, !tbaa !35
  %13 = icmp eq i64 %10, %12
  br i1 %13, label %_ZNK2cm6String9is_stableEv.exit.thread2, label %_ZNK2cm6String9is_stableEv.exit.thread

_ZNK2cm6String9is_stableEv.exit.thread:           ; preds = %4, %6, %_ZNK2cm6String9is_stableEv.exit
  tail call void @_ZN2cm6String34internally_mutate_to_stable_stringEv(ptr noundef nonnull align 8 dereferenceable(32) %0)
  br label %_ZNK2cm6String9is_stableEv.exit.thread2

_ZNK2cm6String9is_stableEv.exit.thread2:          ; preds = %1, %_ZNK2cm6String9is_stableEv.exit, %_ZNK2cm6String9is_stableEv.exit.thread
  ret void
}